ccopy_reg
_reconstructor
p0
(cnltk.tag.crf
MalletCRF
p1
c__builtin__
object
p2
Ntp3
Rp4
(dp5
S'crf_info'
p6
g0
(cnltk.tag.crf
CRFInfo
p7
g2
Ntp8
Rp9
(dp10
S'states'
p11
(lp12
g0
(cnltk.tag.crf
State
p13
g2
Ntp14
Rp15
(dp16
S'initial_cost'
p17
S'+inf'
p18
sS'final_cost'
p19
S'+inf'
p20
sS'transitions'
p21
(lp22
g0
(cnltk.tag.crf
Transition
p23
g2
Ntp24
Rp25
(dp26
S'destination'
p27
S'O'
p28
sS'weightgroups'
p29
(lp30
S'O'
p31
asS'label'
p32
S'O'
p33
sbag0
(g23
g2
Ntp34
Rp35
(dp36
g27
S'REL'
p37
sg29
(lp38
S'REL'
p39
asg32
S'REL'
p40
sbag0
(g23
g2
Ntp41
Rp42
(dp43
g27
S'__end__'
p44
sg29
(lp45
S'__end__'
p46
asg32
S'__end__'
p47
sbag0
(g23
g2
Ntp48
Rp49
(dp50
g27
S'__start__'
p51
sg29
(lp52
S'__start__'
p53
asg32
S'__start__'
p54
sbasS'name'
p55
S'O'
p56
sbag0
(g13
g2
Ntp57
Rp58
(dp59
g17
S'+inf'
p60
sg19
S'+inf'
p61
sg21
(lp62
g0
(g23
g2
Ntp63
Rp64
(dp65
g27
S'O'
p66
sg29
(lp67
S'O'
p68
asg32
S'O'
p69
sbag0
(g23
g2
Ntp70
Rp71
(dp72
g27
S'REL'
p73
sg29
(lp74
S'REL'
p75
asg32
S'REL'
p76
sbag0
(g23
g2
Ntp77
Rp78
(dp79
g27
S'__end__'
p80
sg29
(lp81
S'__end__'
p82
asg32
S'__end__'
p83
sbag0
(g23
g2
Ntp84
Rp85
(dp86
g27
S'__start__'
p87
sg29
(lp88
S'__start__'
p89
asg32
S'__start__'
p90
sbasg55
S'REL'
p91
sbag0
(g13
g2
Ntp92
Rp93
(dp94
g17
S'+inf'
p95
sg19
F0.0
sg21
(lp96
g0
(g23
g2
Ntp97
Rp98
(dp99
g27
S'O'
p100
sg29
(lp101
S'O'
p102
asg32
S'O'
p103
sbag0
(g23
g2
Ntp104
Rp105
(dp106
g27
S'REL'
p107
sg29
(lp108
S'REL'
p109
asg32
S'REL'
p110
sbag0
(g23
g2
Ntp111
Rp112
(dp113
g27
S'__end__'
p114
sg29
(lp115
S'__end__'
p116
asg32
S'__end__'
p117
sbag0
(g23
g2
Ntp118
Rp119
(dp120
g27
S'__start__'
p121
sg29
(lp122
S'__start__'
p123
asg32
S'__start__'
p124
sbasg55
S'__end__'
p125
sbag0
(g13
g2
Ntp126
Rp127
(dp128
g17
F0.0
sg19
S'+inf'
p129
sg21
(lp130
g0
(g23
g2
Ntp131
Rp132
(dp133
g27
S'O'
p134
sg29
(lp135
S'O'
p136
asg32
S'O'
p137
sbag0
(g23
g2
Ntp138
Rp139
(dp140
g27
S'REL'
p141
sg29
(lp142
S'REL'
p143
asg32
S'REL'
p144
sbag0
(g23
g2
Ntp145
Rp146
(dp147
g27
S'__end__'
p148
sg29
(lp149
S'__end__'
p150
asg32
S'__end__'
p151
sbag0
(g23
g2
Ntp152
Rp153
(dp154
g27
S'__start__'
p155
sg29
(lp156
S'__start__'
p157
asg32
S'__start__'
p158
sbasg55
S'__start__'
p159
sbasS'transduction_type'
p160
S'VITERBI'
p161
sS'feature_detector_name'
p162
S'extractFeatures'
p163
sS'weight_groups'
p164
(lp165
g0
(cnltk.tag.crf
WeightGroup
p166
g2
Ntp167
Rp168
(dp169
S'src'
p170
S'.*'
p171
sS'_src_match_cache'
p172
(dp173
sg55
S'O'
p174
sS'dst'
p175
S'O'
p176
sS'_dst_match_cache'
p177
(dp178
sS'features'
p179
S'.*'
p180
sbag0
(g166
g2
Ntp181
Rp182
(dp183
g170
S'.*'
p184
sg172
(dp185
sg55
S'REL'
p186
sg175
S'REL'
p187
sg177
(dp188
sg179
S'.*'
p189
sbag0
(g166
g2
Ntp190
Rp191
(dp192
g170
S'.*'
p193
sg172
(dp194
sg55
S'__end__'
p195
sg175
S'\\_\\_end\\_\\_'
p196
sg177
(dp197
sg179
S'.*'
p198
sbag0
(g166
g2
Ntp199
Rp200
(dp201
g170
S'.*'
p202
sg172
(dp203
sg55
S'__start__'
p204
sg175
S'\\_\\_start\\_\\_'
p205
sg177
(dp206
sg179
S'.*'
p207
sbasS'model_filename'
p208
S'mallet_1it.crf'
p209
sS'gaussian_variance'
p210
F1.0
sS'feature_detector'
p211
cCRFnltk
extractFeatures
p212
sS'add_end_state'
p213
I01
sS'default_label'
p214
S'O'
p215
sS'add_start_state'
p216
I01
sS'max_iterations'
p217
I500
sbsb.